target datalayout = "e-m:e-p270:32:32-p271:32:32-p272:64:64-i64:64-i128:128-f80:128-n8:16:32:64-S128"
target triple = "x86_64-pc-linux-gnu"

%struct.SDL_Rect = type { i32, i32, i32, i32 }
%struct.SDL_Point = type { i32, i32 }
%struct.SDL_WindowData = type { ptr, i64, ptr, i64, i8, %struct.XShmSegmentInfo, ptr, ptr, ptr, i8, i32, i32, i32, i32, i8, i8, i8, i64, i32, i64, i8, %struct.SDL_Point, %struct.XConfigureEvent, %struct.XConfigureEvent, ptr, i64, i64, i64, i8, i64, ptr, i8, [4 x i64], %struct.SDL_Rect, i64, %struct._XSyncValue, i8, %struct.SDL_Rect, %struct.SDL_DisplayMode, i32, i32, i8, i8, i8, i8, i8, i8, i8, i8, i32, %struct.XPoint, ptr, ptr, i32, i32, i8 }
%struct.XShmSegmentInfo = type { i64, i32, ptr, i32 }
%struct.XConfigureEvent = type { i32, i64, i32, ptr, i64, i64, i32, i32, i32, i32, i32, i64, i32 }
%struct._XSyncValue = type { i32, i32 }
%struct.SDL_DisplayMode = type { i32, i32, i32, i32, float, float, i32, i32, ptr }
%struct.XPoint = type { i16, i16 }
%struct.SDL_Window = type { i32, ptr, ptr, i32, i32, i32, i32, i32, i32, i32, i32, float, float, i32, i32, i64, i64, float, i8, i8, i32, i32, %struct.SDL_Rect, %struct.SDL_Rect, %struct.SDL_Rect, i8, i8, i8, %struct.SDL_DisplayMode, %struct.SDL_DisplayMode, %struct.SDL_HDROutputProperties, float, ptr, i8, i8, i8, i8, i8, i8, i8, i8, i8, i32, i32, i32, i32, %struct.SDL_Rect, i32, i8, %struct.SDL_Rect, i32, %struct.SDL_Rect, ptr, ptr, i32, float, i32, i32, ptr, ptr, ptr, ptr, ptr, ptr, ptr, ptr, ptr }
%struct.SDL_HDROutputProperties = type { float, float }

; Function Attrs: nounwind uwtable
define hidden zeroext i1 @X11_ProcessHitTest(ptr noundef %0, ptr noundef %1, float noundef %2, float noundef %3, i1 noundef zeroext %4) #0 {
  %6 = alloca i1, align 1
  %7 = alloca ptr, align 8
  %8 = alloca ptr, align 8
  %9 = alloca float, align 4
  %10 = alloca float, align 4
  %11 = alloca i8, align 1
  %12 = alloca ptr, align 8
  %13 = alloca i32, align 4
  %14 = alloca %struct.SDL_Point, align 4
  %15 = alloca i32, align 4
  store ptr %0, ptr %7, align 8
  store ptr %1, ptr %8, align 8
  store float %2, ptr %9, align 4
  store float %3, ptr %10, align 4
  %16 = zext i1 %4 to i8
  store i8 %16, ptr %11, align 1
  call void @llvm.lifetime.start.p0(i64 8, ptr %12) #7
  %17 = load ptr, ptr %8, align 8
  %18 = getelementptr inbounds nuw %struct.SDL_WindowData, ptr %17, i32 0, i32 0
  %19 = load ptr, ptr %18, align 8
  store ptr %19, ptr %12, align 8
  %20 = load ptr, ptr %12, align 8
  %21 = getelementptr inbounds nuw %struct.SDL_Window, ptr %20, i32 0, i32 52
  %22 = load ptr, ptr %21, align 8
  %23 = icmp ne ptr %22, null
  br i1 %23, label %25, label %24

24:                                               ; preds = %5
  store i1 false, ptr %6, align 1
  store i32 1, ptr %13, align 4
  br label %55

25:                                               ; preds = %5
  call void @llvm.lifetime.start.p0(i64 8, ptr %14) #7
  %26 = getelementptr inbounds nuw %struct.SDL_Point, ptr %14, i32 0, i32 0
  %27 = load float, ptr %9, align 4
  %28 = fptosi float %27 to i32
  store i32 %28, ptr %26, align 4
  %29 = getelementptr inbounds nuw %struct.SDL_Point, ptr %14, i32 0, i32 1
  %30 = load float, ptr %10, align 4
  %31 = fptosi float %30 to i32
  store i32 %31, ptr %29, align 4
  call void @llvm.lifetime.start.p0(i64 4, ptr %15) #7
  %32 = load ptr, ptr %12, align 8
  %33 = getelementptr inbounds nuw %struct.SDL_Window, ptr %32, i32 0, i32 52
  %34 = load ptr, ptr %33, align 8
  %35 = load ptr, ptr %12, align 8
  %36 = load ptr, ptr %12, align 8
  %37 = getelementptr inbounds nuw %struct.SDL_Window, ptr %36, i32 0, i32 53
  %38 = load ptr, ptr %37, align 8
  %39 = call i32 %34(ptr noundef %35, ptr noundef %14, ptr noundef %38)
  store i32 %39, ptr %15, align 4
  %40 = load i8, ptr %11, align 1, !range !3, !noundef !4
  %41 = trunc i8 %40 to i1
  br i1 %41, label %49, label %42

42:                                               ; preds = %25
  %43 = load i32, ptr %15, align 4
  %44 = load ptr, ptr %8, align 8
  %45 = getelementptr inbounds nuw %struct.SDL_WindowData, ptr %44, i32 0, i32 49
  %46 = load i32, ptr %45, align 8
  %47 = icmp eq i32 %43, %46
  br i1 %47, label %48, label %49

48:                                               ; preds = %42
  store i1 true, ptr %6, align 1
  store i32 1, ptr %13, align 4
  br label %54

49:                                               ; preds = %42, %25
  %50 = load i32, ptr %15, align 4
  call void @X11_SetHitTestCursor(i32 noundef %50)
  %51 = load i32, ptr %15, align 4
  %52 = load ptr, ptr %8, align 8
  %53 = getelementptr inbounds nuw %struct.SDL_WindowData, ptr %52, i32 0, i32 49
  store i32 %51, ptr %53, align 8
  store i1 true, ptr %6, align 1
  store i32 1, ptr %13, align 4
  br label %54

54:                                               ; preds = %49, %48
  call void @llvm.lifetime.end.p0(i64 4, ptr %15) #7
  call void @llvm.lifetime.end.p0(i64 8, ptr %14) #7
  br label %55

55:                                               ; preds = %54, %24
  call void @llvm.lifetime.end.p0(i64 8, ptr %12) #7
  %56 = load i1, ptr %6, align 1
  ret i1 %56
}