; Function Attrs: nounwind uwtable
define hidden noundef zeroext i1 @X11_ProcessHitTest(ptr readnone captures(none) %0, ptr noundef captures(none) %1, float noundef %2, float noundef %3, i1 noundef zeroext %4) local_unnamed_addr #1 {
  %6 = alloca %struct.SDL_Point, align 4
  %7 = load ptr, ptr %1, align 8
  %8 = getelementptr inbounds nuw i8, ptr %7, i64 352
  %9 = load ptr, ptr %8, align 8
  %.not = icmp ne ptr %9, null
  br i1 %.not, label %10, label %24

10:                                               ; preds = %5
  call void @llvm.lifetime.start.p0(i64 8, ptr nonnull %6) #12
  %11 = fptosi float %2 to i32
  store i32 %11, ptr %6, align 4
  %12 = getelementptr inbounds nuw i8, ptr %6, i64 4
  %13 = fptosi float %3 to i32
  store i32 %13, ptr %12, align 4
  %14 = getelementptr inbounds nuw i8, ptr %7, i64 360
  %15 = load ptr, ptr %14, align 8
  %16 = call i32 %9(ptr noundef nonnull %7, ptr noundef nonnull %6, ptr noundef %15) #12
  br i1 %4, label %21, label %17

17:                                               ; preds = %10
  %18 = getelementptr inbounds nuw i8, ptr %1, i64 544
  %19 = load i32, ptr %18, align 8
  %20 = icmp eq i32 %16, %19
  br i1 %20, label %23, label %21

21:                                               ; preds = %17, %10
  call void @X11_SetHitTestCursor(i32 noundef %16) #12
  %22 = getelementptr inbounds nuw i8, ptr %1, i64 544
  store i32 %16, ptr %22, align 8
  br label %23

23:                                               ; preds = %17, %21
  call void @llvm.lifetime.end.p0(i64 8, ptr nonnull %6) #12
  br label %24

24:                                               ; preds = %5, %23
  ret i1 %.not
}